target datalayout = "e-m:e-p270:32:32-p271:32:32-p272:64:64-i64:64-i128:128-f80:128-n8:16:32:64-S128"
target triple = "x86_64-unknown-linux-gnu"

%struct.UText = type { i32, i32, i32, i32, i64, i32, i32, i64, i32, i32, ptr, ptr, ptr, ptr, ptr, ptr, ptr, ptr, i64, i32, i32, i64, i32, i32 }
%"class.icu_75::UnicodeString" = type { %"class.icu_75::Replaceable", %"union.icu_75::UnicodeString::StackBufferOrFields" }
%"class.icu_75::Replaceable" = type { %"class.icu_75::UObject" }
%"class.icu_75::UObject" = type { ptr }
%"union.icu_75::UnicodeString::StackBufferOrFields" = type { %struct.anon.0, [32 x i8] }
%struct.anon.0 = type { i16, i32, i32, ptr }

; Function Attrs: mustprogress uwtable
define linkonce_odr noundef i32 @_ZNK6icu_7511Replaceable8char32AtEi(ptr noundef nonnull align 8 dereferenceable(8) %this, i32 noundef %offset) #0 comdat align 2 {
entry:
  %this.addr = alloca ptr, align 8
  %offset.addr = alloca i32, align 4
  store ptr %this, ptr %this.addr, align 8
  store i32 %offset, ptr %offset.addr, align 4
  %this1 = load ptr, ptr %this.addr, align 8
  %0 = load i32, ptr %offset.addr, align 4
  %vtable = load ptr, ptr %this1, align 8
  %vfn = getelementptr inbounds ptr, ptr %vtable, i64 10
  %1 = load ptr, ptr %vfn, align 8
  %call = call noundef i32 %1(ptr noundef nonnull align 8 dereferenceable(8) %this1, i32 noundef %0)
  ret i32 %call
}

; Function Attrs: mustprogress uwtable
define linkonce_odr noundef zeroext i16 @_ZNK6icu_7511Replaceable6charAtEi(ptr noundef nonnull align 8 dereferenceable(8) %this, i32 noundef %offset) #0 comdat align 2 {
entry:
  %this.addr = alloca ptr, align 8
  %offset.addr = alloca i32, align 4
  store ptr %this, ptr %this.addr, align 8
  store i32 %offset, ptr %offset.addr, align 4
  %this1 = load ptr, ptr %this.addr, align 8
  %0 = load i32, ptr %offset.addr, align 4
  %vtable = load ptr, ptr %this1, align 8
  %vfn = getelementptr inbounds ptr, ptr %vtable, i64 9
  %1 = load ptr, ptr %vfn, align 8
  %call = call noundef zeroext i16 %1(ptr noundef nonnull align 8 dereferenceable(8) %this1, i32 noundef %0)
  ret i16 %call
}

; Function Attrs: mustprogress nounwind uwtable
define internal noundef i32 @_ZL8pinIndexRll(ptr noundef nonnull align 8 dereferenceable(8) %index, i64 noundef %limit) #1 {
entry:
  %index.addr = alloca ptr, align 8
  %limit.addr = alloca i64, align 8
  store ptr %index, ptr %index.addr, align 8
  store i64 %limit, ptr %limit.addr, align 8
  %0 = load ptr, ptr %index.addr, align 8
  %1 = load i64, ptr %0, align 8
  %cmp = icmp slt i64 %1, 0
  br i1 %cmp, label %if.then, label %if.else

if.then:                                          ; preds = %entry
  %2 = load ptr, ptr %index.addr, align 8
  store i64 0, ptr %2, align 8
  br label %if.end3

if.else:                                          ; preds = %entry
  %3 = load ptr, ptr %index.addr, align 8
  %4 = load i64, ptr %3, align 8
  %5 = load i64, ptr %limit.addr, align 8
  %cmp1 = icmp sgt i64 %4, %5
  br i1 %cmp1, label %if.then2, label %if.end

if.then2:                                         ; preds = %if.else
  %6 = load i64, ptr %limit.addr, align 8
  %7 = load ptr, ptr %index.addr, align 8
  store i64 %6, ptr %7, align 8
  br label %if.end

if.end:                                           ; preds = %if.then2, %if.else
  br label %if.end3

if.end3:                                          ; preds = %if.end, %if.then
  %8 = load ptr, ptr %index.addr, align 8
  %9 = load i64, ptr %8, align 8
  %conv = trunc i64 %9 to i32
  ret i32 %conv
}

; Function Attrs: mustprogress nounwind uwtable
define internal noundef signext i8 @_ZL9U_FAILURE10UErrorCode(i32 noundef %code) #1 {
entry:
  %code.addr = alloca i32, align 4
  store i32 %code, ptr %code.addr, align 4
  %0 = load i32, ptr %code.addr, align 4
  %cmp = icmp sgt i32 %0, 0
  %conv = zext i1 %cmp to i8
  ret i8 %conv
}

; Function Attrs: mustprogress uwtable
define linkonce_odr noundef i32 @_ZNK6icu_7511Replaceable6lengthEv(ptr noundef nonnull align 8 dereferenceable(8) %this) #0 comdat align 2 {
entry:
  %this.addr = alloca ptr, align 8
  store ptr %this, ptr %this.addr, align 8
  %this1 = load ptr, ptr %this.addr, align 8
  %vtable = load ptr, ptr %this1, align 8
  %vfn = getelementptr inbounds ptr, ptr %vtable, i64 8
  %0 = load ptr, ptr %vfn, align 8
  %call = call noundef i32 %0(ptr noundef nonnull align 8 dereferenceable(8) %this1)
  ret i32 %call
}

; Function Attrs: mustprogress uwtable
define internal noundef i32 @_ZL14repTextExtractP5UTextllPDsiP10UErrorCode(ptr noundef %ut, i64 noundef %start, i64 noundef %limit, ptr noundef %dest, i32 noundef %destCapacity, ptr noundef %status) #0 personality ptr @__gxx_personality_v0 {
entry:
  %retval = alloca i32, align 4
  %ut.addr = alloca ptr, align 8
  %start.addr = alloca i64, align 8
  %limit.addr = alloca i64, align 8
  %dest.addr = alloca ptr, align 8
  %destCapacity.addr = alloca i32, align 4
  %status.addr = alloca ptr, align 8
  %rep = alloca ptr, align 8
  %length = alloca i32, align 4
  %start32 = alloca i32, align 4
  %limit32 = alloca i32, align 4
  %buffer = alloca %"class.icu_75::UnicodeString", align 8
  %exn.slot = alloca ptr, align 8
  %ehselector.slot = alloca i32, align 4
  store ptr %ut, ptr %ut.addr, align 8
  store i64 %start, ptr %start.addr, align 8
  store i64 %limit, ptr %limit.addr, align 8
  store ptr %dest, ptr %dest.addr, align 8
  store i32 %destCapacity, ptr %destCapacity.addr, align 4
  store ptr %status, ptr %status.addr, align 8
  %0 = load ptr, ptr %ut.addr, align 8
  %context = getelementptr inbounds %struct.UText, ptr %0, i32 0, i32 13
  %1 = load ptr, ptr %context, align 8
  store ptr %1, ptr %rep, align 8
  %2 = load ptr, ptr %rep, align 8
  %call = call noundef i32 @_ZNK6icu_7511Replaceable6lengthEv(ptr noundef nonnull align 8 dereferenceable(8) %2)
  store i32 %call, ptr %length, align 4
  %3 = load ptr, ptr %status.addr, align 8
  %4 = load i32, ptr %3, align 4
  %call1 = call noundef signext i8 @_ZL9U_FAILURE10UErrorCode(i32 noundef %4)
  %tobool = icmp ne i8 %call1, 0
  br i1 %tobool, label %if.then, label %if.end

if.then:                                          ; preds = %entry
  store i32 0, ptr %retval, align 4
  br label %return

if.end:                                           ; preds = %entry
  %5 = load i32, ptr %destCapacity.addr, align 4
  %cmp = icmp slt i32 %5, 0
  br i1 %cmp, label %if.then4, label %lor.lhs.false

lor.lhs.false:                                    ; preds = %if.end
  %6 = load ptr, ptr %dest.addr, align 8
  %cmp2 = icmp eq ptr %6, null
  br i1 %cmp2, label %land.lhs.true, label %if.end5

land.lhs.true:                                    ; preds = %lor.lhs.false
  %7 = load i32, ptr %destCapacity.addr, align 4
  %cmp3 = icmp sgt i32 %7, 0
  br i1 %cmp3, label %if.then4, label %if.end5

if.then4:                                         ; preds = %land.lhs.true, %if.end
  %8 = load ptr, ptr %status.addr, align 8
  store i32 1, ptr %8, align 4
  br label %if.end5

if.end5:                                          ; preds = %if.then4, %land.lhs.true, %lor.lhs.false
  %9 = load i64, ptr %start.addr, align 8
  %10 = load i64, ptr %limit.addr, align 8
  %cmp6 = icmp sgt i64 %9, %10
  br i1 %cmp6, label %if.then7, label %if.end8

if.then7:                                         ; preds = %if.end5
  %11 = load ptr, ptr %status.addr, align 8
  store i32 8, ptr %11, align 4
  store i32 0, ptr %retval, align 4
  br label %return

if.end8:                                          ; preds = %if.end5
  %12 = load i32, ptr %length, align 4
  %conv = sext i32 %12 to i64
  %call9 = call noundef i32 @_ZL8pinIndexRll(ptr noundef nonnull align 8 dereferenceable(8) %start.addr, i64 noundef %conv)
  store i32 %call9, ptr %start32, align 4
  %13 = load i32, ptr %length, align 4
  %conv10 = sext i32 %13 to i64
  %call11 = call noundef i32 @_ZL8pinIndexRll(ptr noundef nonnull align 8 dereferenceable(8) %limit.addr, i64 noundef %conv10)
  store i32 %call11, ptr %limit32, align 4
  %14 = load i32, ptr %start32, align 4
  %15 = load i32, ptr %length, align 4
  %cmp12 = icmp slt i32 %14, %15
  br i1 %cmp12, label %land.lhs.true13, label %if.end21

land.lhs.true13:                                  ; preds = %if.end8
  %16 = load ptr, ptr %rep, align 8
  %17 = load i32, ptr %start32, align 4
  %call14 = call noundef zeroext i16 @_ZNK6icu_7511Replaceable6charAtEi(ptr noundef nonnull align 8 dereferenceable(8) %16, i32 noundef %17)
  %conv15 = zext i16 %call14 to i32
  %and = and i32 %conv15, -1024
  %cmp16 = icmp eq i32 %and, 56320
  br i1 %cmp16, label %land.lhs.true17, label %if.end21

land.lhs.true17:                                  ; preds = %land.lhs.true13
  %18 = load ptr, ptr %rep, align 8
  %19 = load i32, ptr %start32, align 4
  %call18 = call noundef i32 @_ZNK6icu_7511Replaceable8char32AtEi(ptr noundef nonnull align 8 dereferenceable(8) %18, i32 noundef %19)
  %sub = sub nsw i32 %call18, 65536
  %cmp19 = icmp ule i32 %sub, 1048575
  br i1 %cmp19, label %if.then20, label %if.end21

if.then20:                                        ; preds = %land.lhs.true17
  %20 = load i32, ptr %start32, align 4
  %dec = add nsw i32 %20, -1
  store i32 %dec, ptr %start32, align 4
  br label %if.end21

if.end21:                                         ; preds = %if.then20, %land.lhs.true17, %land.lhs.true13, %if.end8
  %21 = load i32, ptr %limit32, align 4
  %22 = load i32, ptr %length, align 4
  %cmp22 = icmp slt i32 %21, %22
  br i1 %cmp22, label %land.lhs.true23, label %if.end34

land.lhs.true23:                                  ; preds = %if.end21
  %23 = load ptr, ptr %rep, align 8
  %24 = load i32, ptr %limit32, align 4
  %call24 = call noundef zeroext i16 @_ZNK6icu_7511Replaceable6charAtEi(ptr noundef nonnull align 8 dereferenceable(8) %23, i32 noundef %24)
  %conv25 = zext i16 %call24 to i32
  %and26 = and i32 %conv25, -1024
  %cmp27 = icmp eq i32 %and26, 56320
  br i1 %cmp27, label %land.lhs.true28, label %if.end34

land.lhs.true28:                                  ; preds = %land.lhs.true23
  %25 = load ptr, ptr %rep, align 8
  %26 = load i32, ptr %limit32, align 4
  %call29 = call noundef i32 @_ZNK6icu_7511Replaceable8char32AtEi(ptr noundef nonnull align 8 dereferenceable(8) %25, i32 noundef %26)
  %sub30 = sub nsw i32 %call29, 65536
  %cmp31 = icmp ule i32 %sub30, 1048575
  br i1 %cmp31, label %if.then32, label %if.end34

if.then32:                                        ; preds = %land.lhs.true28
  %27 = load i32, ptr %limit32, align 4
  %dec33 = add nsw i32 %27, -1
  store i32 %dec33, ptr %limit32, align 4
  br label %if.end34

if.end34:                                         ; preds = %if.then32, %land.lhs.true28, %land.lhs.true23, %if.end21
  %28 = load i32, ptr %limit32, align 4
  %29 = load i32, ptr %start32, align 4
  %sub35 = sub nsw i32 %28, %29
  store i32 %sub35, ptr %length, align 4
  %30 = load i32, ptr %length, align 4
  %31 = load i32, ptr %destCapacity.addr, align 4
  %cmp36 = icmp sgt i32 %30, %31
  br i1 %cmp36, label %if.then37, label %if.end38

if.then37:                                        ; preds = %if.end34
  %32 = load i32, ptr %start32, align 4
  %33 = load i32, ptr %destCapacity.addr, align 4
  %add = add nsw i32 %32, %33
  store i32 %add, ptr %limit32, align 4
  br label %if.end38

if.end38:                                         ; preds = %if.then37, %if.end34
  %34 = load ptr, ptr %dest.addr, align 8
  %35 = load i32, ptr %destCapacity.addr, align 4
  call void @_ZN6icu_7513UnicodeStringC1EPDsii(ptr noundef nonnull align 8 dereferenceable(64) %buffer, ptr noundef %34, i32 noundef 0, i32 noundef %35)
  %36 = load ptr, ptr %rep, align 8
  %37 = load i32, ptr %start32, align 4
  %38 = load i32, ptr %limit32, align 4
  %vtable = load ptr, ptr %36, align 8
  %vfn = getelementptr inbounds ptr, ptr %vtable, i64 3
  %39 = load ptr, ptr %vfn, align 8
  invoke void %39(ptr noundef nonnull align 8 dereferenceable(8) %36, i32 noundef %37, i32 noundef %38, ptr noundef nonnull align 8 dereferenceable(64) %buffer)
          to label %invoke.cont unwind label %lpad

invoke.cont:                                      ; preds = %if.end38
  %40 = load ptr, ptr %ut.addr, align 8
  %41 = load i32, ptr %limit32, align 4
  %conv39 = sext i32 %41 to i64
  %call41 = invoke noundef signext i8 @_ZL13repTextAccessP5UTextla(ptr noundef %40, i64 noundef %conv39, i8 noundef signext 1)
          to label %invoke.cont40 unwind label %lpad

invoke.cont40:                                    ; preds = %invoke.cont
  %42 = load ptr, ptr %dest.addr, align 8
  %43 = load i32, ptr %destCapacity.addr, align 4
  %44 = load i32, ptr %length, align 4
  %45 = load ptr, ptr %status.addr, align 8
  %call43 = invoke i32 @u_terminateUChars_75(ptr noundef %42, i32 noundef %43, i32 noundef %44, ptr noundef %45)
          to label %invoke.cont42 unwind label %lpad

invoke.cont42:                                    ; preds = %invoke.cont40
  store i32 %call43, ptr %retval, align 4
  call void @_ZN6icu_7513UnicodeStringD1Ev(ptr noundef nonnull align 8 dereferenceable(64) %buffer) #8
  br label %return

lpad:                                             ; preds = %invoke.cont40, %invoke.cont, %if.end38
  %46 = landingpad { ptr, i32 }
          cleanup
  %47 = extractvalue { ptr, i32 } %46, 0
  store ptr %47, ptr %exn.slot, align 8
  %48 = extractvalue { ptr, i32 } %46, 1
  store i32 %48, ptr %ehselector.slot, align 4
  call void @_ZN6icu_7513UnicodeStringD1Ev(ptr noundef nonnull align 8 dereferenceable(64) %buffer) #8
  br label %eh.resume

return:                                           ; preds = %invoke.cont42, %if.then7, %if.then
  %49 = load i32, ptr %retval, align 4
  ret i32 %49

eh.resume:                                        ; preds = %lpad
  %exn = load ptr, ptr %exn.slot, align 8
  %sel = load i32, ptr %ehselector.slot, align 4
  %lpad.val = insertvalue { ptr, i32 } poison, ptr %exn, 0
  %lpad.val44 = insertvalue { ptr, i32 } %lpad.val, i32 %sel, 1
  resume { ptr, i32 } %lpad.val44
}