; Function Attrs: mustprogress uwtable
define internal noundef i32 @_ZL14repTextExtractP5UTextllPDsiP10UErrorCode(ptr nocapture noundef %ut, i64 noundef %start, i64 noundef %limit, ptr noundef %dest, i32 noundef %destCapacity, ptr noundef %status) #0 personality ptr @__gxx_personality_v0 {
entry:
  %buffer = alloca %"class.icu_75::UnicodeString", align 8
  %context = getelementptr inbounds i8, ptr %ut, i64 72
  %0 = load ptr, ptr %context, align 8
  %vtable.i = load ptr, ptr %0, align 8
  %vfn.i = getelementptr inbounds i8, ptr %vtable.i, i64 64
  %1 = load ptr, ptr %vfn.i, align 8
  %call.i = tail call noundef i32 %1(ptr noundef nonnull align 8 dereferenceable(8) %0)
  %2 = load i32, ptr %status, align 4
  %cmp.i = icmp slt i32 %2, 1
  br i1 %cmp.i, label %if.end, label %return

if.end:                                           ; preds = %entry
  %cmp = icmp slt i32 %destCapacity, 0
  br i1 %cmp, label %if.then4, label %lor.lhs.false

lor.lhs.false:                                    ; preds = %if.end
  %cmp2 = icmp eq ptr %dest, null
  %cmp3 = icmp ne i32 %destCapacity, 0
  %or.cond = and i1 %cmp2, %cmp3
  br i1 %or.cond, label %if.then4, label %if.end5

if.then4:                                         ; preds = %lor.lhs.false, %if.end
  store i32 1, ptr %status, align 4
  br label %if.end5

if.end5:                                          ; preds = %if.then4, %lor.lhs.false
  %cmp6 = icmp sgt i64 %start, %limit
  br i1 %cmp6, label %if.then7, label %if.end8

if.then7:                                         ; preds = %if.end5
  store i32 8, ptr %status, align 4
  br label %return

if.end8:                                          ; preds = %if.end5
  %conv = sext i32 %call.i to i64
  %cmp.i36 = icmp slt i64 %start, 0
  %spec.select59 = tail call i64 @llvm.smin.i64(i64 %conv, i64 %start)
  %3 = trunc i64 %spec.select59 to i32
  %conv.i37 = select i1 %cmp.i36, i32 0, i32 %3
  %cmp.i38 = icmp slt i64 %limit, 0
  %spec.select60 = tail call i64 @llvm.smin.i64(i64 %conv, i64 %limit)
  %4 = trunc i64 %spec.select60 to i32
  %conv.i41 = select i1 %cmp.i38, i32 0, i32 %4
  %cmp12 = icmp slt i32 %conv.i37, %call.i
  br i1 %cmp12, label %land.lhs.true13, label %if.end21

land.lhs.true13:                                  ; preds = %if.end8
  %vtable.i45 = load ptr, ptr %0, align 8
  %vfn.i46 = getelementptr inbounds i8, ptr %vtable.i45, i64 72
  %5 = load ptr, ptr %vfn.i46, align 8
  %call.i47 = tail call noundef zeroext i16 %5(ptr noundef nonnull align 8 dereferenceable(8) %0, i32 noundef %conv.i37)
  %6 = and i16 %call.i47, -1024
  %cmp16 = icmp eq i16 %6, -9216
  br i1 %cmp16, label %land.lhs.true17, label %if.end21

land.lhs.true17:                                  ; preds = %land.lhs.true13
  %vtable.i48 = load ptr, ptr %0, align 8
  %vfn.i49 = getelementptr inbounds i8, ptr %vtable.i48, i64 80
  %7 = load ptr, ptr %vfn.i49, align 8
  %call.i50 = tail call noundef i32 %7(ptr noundef nonnull align 8 dereferenceable(8) %0, i32 noundef %conv.i37)
  %sub = add nsw i32 %call.i50, -65536
  %cmp19 = icmp ult i32 %sub, 1048576
  %dec = sext i1 %cmp19 to i32
  %spec.select = add nsw i32 %conv.i37, %dec
  br label %if.end21

if.end21:                                         ; preds = %land.lhs.true17, %land.lhs.true13, %if.end8
  %start32.0 = phi i32 [ %conv.i37, %land.lhs.true13 ], [ %conv.i37, %if.end8 ], [ %spec.select, %land.lhs.true17 ]
  %cmp22 = icmp slt i32 %conv.i41, %call.i
  br i1 %cmp22, label %land.lhs.true23, label %if.end34

land.lhs.true23:                                  ; preds = %if.end21
  %vtable.i51 = load ptr, ptr %0, align 8
  %vfn.i52 = getelementptr inbounds i8, ptr %vtable.i51, i64 72
  %8 = load ptr, ptr %vfn.i52, align 8
  %call.i53 = tail call noundef zeroext i16 %8(ptr noundef nonnull align 8 dereferenceable(8) %0, i32 noundef %conv.i41)
  %9 = and i16 %call.i53, -1024
  %cmp27 = icmp eq i16 %9, -9216
  br i1 %cmp27, label %land.lhs.true28, label %if.end34

land.lhs.true28:                                  ; preds = %land.lhs.true23
  %vtable.i54 = load ptr, ptr %0, align 8
  %vfn.i55 = getelementptr inbounds i8, ptr %vtable.i54, i64 80
  %10 = load ptr, ptr %vfn.i55, align 8
  %call.i56 = tail call noundef i32 %10(ptr noundef nonnull align 8 dereferenceable(8) %0, i32 noundef %conv.i41)
  %sub30 = add nsw i32 %call.i56, -65536
  %cmp31 = icmp ult i32 %sub30, 1048576
  %dec33 = sext i1 %cmp31 to i32
  %spec.select34 = add nsw i32 %conv.i41, %dec33
  br label %if.end34

if.end34:                                         ; preds = %land.lhs.true28, %land.lhs.true23, %if.end21
  %limit32.0 = phi i32 [ %conv.i41, %land.lhs.true23 ], [ %conv.i41, %if.end21 ], [ %spec.select34, %land.lhs.true28 ]
  %sub35 = sub nsw i32 %limit32.0, %start32.0
  %cmp36 = icmp sgt i32 %sub35, %destCapacity
  %add = add nsw i32 %start32.0, %destCapacity
  %spec.select35 = select i1 %cmp36, i32 %add, i32 %limit32.0
  call void @_ZN6icu_7513UnicodeStringC1EPDsii(ptr noundef nonnull align 8 dereferenceable(64) %buffer, ptr noundef %dest, i32 noundef 0, i32 noundef %destCapacity)
  %vtable = load ptr, ptr %0, align 8
  %vfn = getelementptr inbounds i8, ptr %vtable, i64 24
  %11 = load ptr, ptr %vfn, align 8
  invoke void %11(ptr noundef nonnull align 8 dereferenceable(8) %0, i32 noundef %start32.0, i32 noundef %spec.select35, ptr noundef nonnull align 8 dereferenceable(64) %buffer)
          to label %invoke.cont unwind label %lpad

invoke.cont:                                      ; preds = %if.end34
  %conv39 = sext i32 %spec.select35 to i64
  %call41 = invoke noundef signext i8 @_ZL13repTextAccessP5UTextla(ptr noundef nonnull %ut, i64 noundef %conv39, i8 noundef signext 1)
          to label %invoke.cont40 unwind label %lpad, !range !16

invoke.cont40:                                    ; preds = %invoke.cont
  %call43 = invoke i32 @u_terminateUChars_75(ptr noundef %dest, i32 noundef %destCapacity, i32 noundef %sub35, ptr noundef nonnull %status)
          to label %invoke.cont42 unwind label %lpad

invoke.cont42:                                    ; preds = %invoke.cont40
  call void @_ZN6icu_7513UnicodeStringD1Ev(ptr noundef nonnull align 8 dereferenceable(64) %buffer) #14
  br label %return

lpad:                                             ; preds = %invoke.cont40, %invoke.cont, %if.end34
  %12 = landingpad { ptr, i32 }
          cleanup
  call void @_ZN6icu_7513UnicodeStringD1Ev(ptr noundef nonnull align 8 dereferenceable(64) %buffer) #14
  resume { ptr, i32 } %12

return:                                           ; preds = %entry, %invoke.cont42, %if.then7
  %retval.0 = phi i32 [ 0, %if.then7 ], [ %call43, %invoke.cont42 ], [ 0, %entry ]
  ret i32 %retval.0
}